target datalayout = "e-m:e-p270:32:32-p271:32:32-p272:64:64-i64:64-i128:128-f80:128-n8:16:32:64-S128"
target triple = "x86_64-pc-linux-gnu"

%struct.flatten_join_alias_vars_context = type { ptr, ptr, i32, i8, i8 }
%struct.Query = type { i32, i32, i32, i64, i8, ptr, i32, i8, i8, i8, i8, i8, i8, i8, i8, i8, i8, i8, ptr, ptr, ptr, ptr, ptr, i32, ptr, ptr, i32, ptr, ptr, ptr, ptr, ptr, i8, ptr, ptr, ptr, ptr, ptr, ptr, ptr, i32, ptr, ptr, ptr, ptr, i32, i32 }

; Function Attrs: nounwind uwtable
define dso_local ptr @flatten_join_alias_vars(ptr noundef %0, ptr noundef %1, ptr noundef %2) #0 {
  %4 = alloca ptr, align 8
  %5 = alloca ptr, align 8
  %6 = alloca ptr, align 8
  %7 = alloca %struct.flatten_join_alias_vars_context, align 8
  store ptr %0, ptr %4, align 8
  store ptr %1, ptr %5, align 8
  store ptr %2, ptr %6, align 8
  call void @llvm.lifetime.start.p0(i64 24, ptr %7) #6
  %8 = load ptr, ptr %4, align 8
  %9 = getelementptr inbounds nuw %struct.flatten_join_alias_vars_context, ptr %7, i32 0, i32 0
  store ptr %8, ptr %9, align 8
  %10 = load ptr, ptr %5, align 8
  %11 = getelementptr inbounds nuw %struct.flatten_join_alias_vars_context, ptr %7, i32 0, i32 1
  store ptr %10, ptr %11, align 8
  %12 = getelementptr inbounds nuw %struct.flatten_join_alias_vars_context, ptr %7, i32 0, i32 2
  store i32 0, ptr %12, align 8
  %13 = load ptr, ptr %5, align 8
  %14 = getelementptr inbounds nuw %struct.Query, ptr %13, i32 0, i32 10
  %15 = load i8, ptr %14, align 1, !range !4, !noundef !5
  %16 = trunc i8 %15 to i1
  %17 = getelementptr inbounds nuw %struct.flatten_join_alias_vars_context, ptr %7, i32 0, i32 3
  %18 = zext i1 %16 to i8
  store i8 %18, ptr %17, align 4
  %19 = load ptr, ptr %5, align 8
  %20 = getelementptr inbounds nuw %struct.Query, ptr %19, i32 0, i32 10
  %21 = load i8, ptr %20, align 1, !range !4, !noundef !5
  %22 = trunc i8 %21 to i1
  %23 = getelementptr inbounds nuw %struct.flatten_join_alias_vars_context, ptr %7, i32 0, i32 4
  %24 = zext i1 %22 to i8
  store i8 %24, ptr %23, align 1
  %25 = load ptr, ptr %6, align 8
  %26 = call ptr @flatten_join_alias_vars_mutator(ptr noundef %25, ptr noundef %7)
  call void @llvm.lifetime.end.p0(i64 24, ptr %7) #6
  ret ptr %26
}